; Function Attrs: mustprogress nounwind willreturn uwtable
define dso_local ptr @pop_commit(ptr noundef captures(none) %0) local_unnamed_addr #10 {
  %2 = load ptr, ptr %0, align 8, !tbaa !90
  %.not = icmp eq ptr %2, null
  br i1 %.not, label %.thread, label %3

3:                                                ; preds = %1
  %4 = load ptr, ptr %2, align 8, !tbaa !89
  %5 = getelementptr inbounds nuw i8, ptr %2, i64 8
  %6 = load ptr, ptr %5, align 8, !tbaa !48
  store ptr %6, ptr %0, align 8, !tbaa !90
  tail call void @free(ptr noundef nonnull %2) #24
  br label %.thread

.thread:                                          ; preds = %1, %3
  %7 = phi ptr [ %4, %3 ], [ null, %1 ]
  ret ptr %7
}